
blinken.elf:     file format elf32-avr

Sections:
Idx Name          Size      VMA       LMA       File off  Algn
  0 .text         000007dc  00000000  00000000  00000094  2**1
                  CONTENTS, ALLOC, LOAD, READONLY, CODE
  1 .data         0000001a  00800060  000007dc  00000870  2**0
                  CONTENTS, ALLOC, LOAD, DATA
  2 .bss          00000019  0080007a  0080007a  0000088a  2**0
                  ALLOC
  3 .stab         00000840  00000000  00000000  0000088c  2**2
                  CONTENTS, READONLY, DEBUGGING
  4 .stabstr      000000b2  00000000  00000000  000010cc  2**0
                  CONTENTS, READONLY, DEBUGGING
  5 .comment      00000011  00000000  00000000  0000117e  2**0
                  CONTENTS, READONLY

Disassembly of section .text:

00000000 <__vectors>:
   0:	05 c1       	rjmp	.+522    	; 0x20c <__ctors_end>
   2:	1f c1       	rjmp	.+574    	; 0x242 <__bad_interrupt>
   4:	1e c1       	rjmp	.+572    	; 0x242 <__bad_interrupt>
   6:	1d c1       	rjmp	.+570    	; 0x242 <__bad_interrupt>
   8:	29 c1       	rjmp	.+594    	; 0x25c <__vector_4>
   a:	1b c1       	rjmp	.+566    	; 0x242 <__bad_interrupt>
   c:	1a c1       	rjmp	.+564    	; 0x242 <__bad_interrupt>
   e:	19 c1       	rjmp	.+562    	; 0x242 <__bad_interrupt>
  10:	18 c1       	rjmp	.+560    	; 0x242 <__bad_interrupt>
  12:	17 c1       	rjmp	.+558    	; 0x242 <__bad_interrupt>
  14:	16 c1       	rjmp	.+556    	; 0x242 <__bad_interrupt>
  16:	15 c1       	rjmp	.+554    	; 0x242 <__bad_interrupt>
  18:	14 c1       	rjmp	.+552    	; 0x242 <__bad_interrupt>
  1a:	13 c1       	rjmp	.+550    	; 0x242 <__bad_interrupt>
  1c:	12 c1       	rjmp	.+548    	; 0x242 <__bad_interrupt>
  1e:	11 c1       	rjmp	.+546    	; 0x242 <__bad_interrupt>
  20:	10 c1       	rjmp	.+544    	; 0x242 <__bad_interrupt>
  22:	0f c1       	rjmp	.+542    	; 0x242 <__bad_interrupt>
  24:	0e c1       	rjmp	.+540    	; 0x242 <__bad_interrupt>
  26:	0d c1       	rjmp	.+538    	; 0x242 <__bad_interrupt>
  28:	0c c1       	rjmp	.+536    	; 0x242 <__bad_interrupt>
  2a:	17 c2       	rjmp	.+1070   	; 0x45a <__vector_4+0x1fe>
  2c:	18 c2       	rjmp	.+1072   	; 0x45e <__vector_4+0x202>
  2e:	19 c2       	rjmp	.+1074   	; 0x462 <__vector_4+0x206>
  30:	1a c2       	rjmp	.+1076   	; 0x466 <__vector_4+0x20a>
  32:	1b c2       	rjmp	.+1078   	; 0x46a <__vector_4+0x20e>
  34:	1c c2       	rjmp	.+1080   	; 0x46e <__vector_4+0x212>
  36:	1d c2       	rjmp	.+1082   	; 0x472 <__vector_4+0x216>
  38:	1e c2       	rjmp	.+1084   	; 0x476 <__vector_4+0x21a>

0000003a <widths>:
  3a:	13 65 65 23 36 52 41 45 34 45 44 44 41 24 44 47     .ee#6RAE4EDDA$DG
  4a:	44 44 44 54 34 54 75 54 54 45 55 75 55 34 35 43     DDDT4TuTTEUuU45C
  5a:	44 44 44 44 12 43 54 44 43 44 45 55 44 31 35 76     DDDD.CTDCDEUD15v
  6a:	44 44 44                                            DDD

0000006d <font>:
  6d:	5f 03 00 03 24 7e 24 24 7e 24 2e 6b 2a 6b 3a 06     _...$~$$~$.k*k:.
  7d:	46 30 0c 62 60 36 49 49 36 50 04 03 3c 42 81 81     F0.b`6II6P..<B..
  8d:	42 3c 08 2a 1c 1c 2a 08 08 08 3e 08 08 80 60 08     B<.*..*...>...`.
  9d:	08 08 08 40 c0 30 0c 03 3e 51 49 45 3e 42 7f 40     ...@.0..>QIE>B.@
  ad:	71 49 49 46 41 49 49 36 18 14 12 7f 10 47 45 45     qIIFAII6.....GEE
  bd:	39 3e 49 49 32 01 61 19 07 36 49 49 36 06 49 49     9>II2.a..6II6.II
  cd:	3e 44 80 4c 08 14 22 41 14 14 14 14 41 22 14 08     >D.L.."A....A"..
  dd:	01 59 09 06 3e 41 5d 55 5d 51 0e 7e 09 09 7e 7f     .Y..>A]U]Q.~..~.
  ed:	49 49 36 3e 41 41 41 7f 41 41 3e 7f 49 49 41 7f     II6>AAA.AA>.IIA.
  fd:	09 09 01 3e 41 41 49 38 7f 08 08 7f 41 7f 41 31     ...>AAI8....A.A1
 10d:	41 41 7f 7f 08 14 22 41 7f 40 40 40 7f 02 04 08     AA...."A.@@@....
 11d:	04 02 7f 7f 04 08 10 7f 3e 41 41 41 3e 7f 09 09     ........>AAA>...
 12d:	06 3e 41 41 21 5e 7f 09 09 76 46 49 49 31 01 01     .>AA!^...vFII1..
 13d:	7f 01 01 3f 40 40 40 3f 0f 30 40 30 0f 0f 30 40     ...?@@@?.0@0..0@
 14d:	30 40 30 0f 63 14 08 14 63 07 08 70 08 07 61 51     0@0.c...c..p..aQ
 15d:	49 45 43 ff 81 81 03 0c 30 c0 81 81 ff 04 02 01     IEC.....0.......
 16d:	02 04 40 40 40 40 01 02 04 38 44 44 7c 7f 44 44     ..@@@@...8DD|.DD
 17d:	38 38 44 44 44 38 44 44 7f 38 54 54 58 08 fe 09     88DDD8DD.8TTX...
 18d:	01 18 a4 a4 78 7f 04 04 78 7a 80 7a 7f 10 28 44     ....x...xz.z..(D
 19d:	3f 40 40 7c 04 7c 04 78 7c 04 04 78 38 44 44 38     ?@@|.|.x|..x8DD8
 1ad:	fc 24 24 18 18 24 24 fc 7c 08 04 48 54 54 24 04     .$$..$$.|..HTT$.
 1bd:	3f 44 40 3c 40 40 3c 0c 30 40 30 0c 3c 40 20 40     ?D@<@@<.0@0.<@ @
 1cd:	3c 44 28 10 28 44 1c a0 a0 7c 64 54 54 4c 08 3e     <D(.(D...|dTTL.>
 1dd:	41 ff 41 3e 08 18 04 08 10 0c 0e 1f 3f 7e 3f 1f     A.A>........?~?.
 1ed:	0e 14 3e 55 55 41 41 79 14 14 79 39 44 44 39 3d     ..>UUAAy..y9DD9=
 1fd:	40 40 3d ff 01 49 36 39 44 44 7d fc 20 20 1c        @@=..I69DD}.  .

0000020c <__ctors_end>:
 20c:	11 24       	eor	r1, r1
 20e:	1f be       	out	0x3f, r1	; 63
 210:	cf e5       	ldi	r28, 0x5F	; 95
 212:	d1 e0       	ldi	r29, 0x01	; 1
 214:	de bf       	out	0x3e, r29	; 62
 216:	cd bf       	out	0x3d, r28	; 61

00000218 <__do_copy_data>:
 218:	10 e0       	ldi	r17, 0x00	; 0
 21a:	a0 e6       	ldi	r26, 0x60	; 96
 21c:	b0 e0       	ldi	r27, 0x00	; 0
 21e:	ec ed       	ldi	r30, 0xDC	; 220
 220:	f7 e0       	ldi	r31, 0x07	; 7
 222:	02 c0       	rjmp	.+4      	; 0x228 <__do_copy_data+0x10>
 224:	05 90       	lpm	r0, Z+
 226:	0d 92       	st	X+, r0
 228:	aa 37       	cpi	r26, 0x7A	; 122
 22a:	b1 07       	cpc	r27, r17
 22c:	d9 f7       	brne	.-10     	; 0x224 <__do_copy_data+0xc>

0000022e <__do_clear_bss>:
 22e:	10 e0       	ldi	r17, 0x00	; 0
 230:	aa e7       	ldi	r26, 0x7A	; 122
 232:	b0 e0       	ldi	r27, 0x00	; 0
 234:	01 c0       	rjmp	.+2      	; 0x238 <.do_clear_bss_start>

00000236 <.do_clear_bss_loop>:
 236:	1d 92       	st	X+, r1

00000238 <.do_clear_bss_start>:
 238:	a3 39       	cpi	r26, 0x93	; 147
 23a:	b1 07       	cpc	r27, r17
 23c:	e1 f7       	brne	.-8      	; 0x236 <.do_clear_bss_loop>
 23e:	28 d1       	rcall	.+592    	; 0x490 <main>
 240:	cb c2       	rjmp	.+1430   	; 0x7d8 <_exit>

00000242 <__bad_interrupt>:
 242:	de ce       	rjmp	.-580    	; 0x0 <__vectors>

00000244 <delay>:
 244:	10 92 7f 00 	sts	0x007F, r1
 248:	10 92 7e 00 	sts	0x007E, r1
 24c:	20 91 7e 00 	lds	r18, 0x007E
 250:	30 91 7f 00 	lds	r19, 0x007F
 254:	28 17       	cp	r18, r24
 256:	39 07       	cpc	r19, r25
 258:	c8 f3       	brcs	.-14     	; 0x24c <delay+0x8>
 25a:	08 95       	ret

0000025c <__vector_4>:
 25c:	1f 92       	push	r1
 25e:	0f 92       	push	r0
 260:	0f b6       	in	r0, 0x3f	; 63
 262:	0f 92       	push	r0
 264:	11 24       	eor	r1, r1
 266:	2f 93       	push	r18
 268:	8f 93       	push	r24
 26a:	9f 93       	push	r25
 26c:	af 93       	push	r26
 26e:	bf 93       	push	r27
 270:	ef 93       	push	r30
 272:	ff 93       	push	r31
 274:	80 91 7e 00 	lds	r24, 0x007E
 278:	90 91 7f 00 	lds	r25, 0x007F
 27c:	01 96       	adiw	r24, 0x01	; 1
 27e:	90 93 7f 00 	sts	0x007F, r25
 282:	80 93 7e 00 	sts	0x007E, r24
 286:	80 91 82 00 	lds	r24, 0x0082
 28a:	90 91 83 00 	lds	r25, 0x0083
 28e:	01 96       	adiw	r24, 0x01	; 1
 290:	90 93 83 00 	sts	0x0083, r25
 294:	80 93 82 00 	sts	0x0082, r24
 298:	88 97       	sbiw	r24, 0x28	; 40
 29a:	68 f0       	brcs	.+26     	; 0x2b6 <__vector_4+0x5a>
 29c:	10 92 83 00 	sts	0x0083, r1
 2a0:	10 92 82 00 	sts	0x0082, r1
 2a4:	80 91 80 00 	lds	r24, 0x0080
 2a8:	90 91 81 00 	lds	r25, 0x0081
 2ac:	01 96       	adiw	r24, 0x01	; 1
 2ae:	90 93 81 00 	sts	0x0081, r25
 2b2:	80 93 80 00 	sts	0x0080, r24
 2b6:	20 b3       	in	r18, 0x10	; 16
 2b8:	20 74       	andi	r18, 0x40	; 64
 2ba:	80 91 90 00 	lds	r24, 0x0090
 2be:	82 17       	cp	r24, r18
 2c0:	09 f4       	brne	.+2      	; 0x2c4 <__vector_4+0x68>
 2c2:	6f c0       	rjmp	.+222    	; 0x3a2 <__vector_4+0x146>
 2c4:	80 91 91 00 	lds	r24, 0x0091
 2c8:	90 91 92 00 	lds	r25, 0x0092
 2cc:	03 97       	sbiw	r24, 0x03	; 3
 2ce:	48 f4       	brcc	.+18     	; 0x2e2 <__vector_4+0x86>
 2d0:	10 92 92 00 	sts	0x0092, r1
 2d4:	10 92 91 00 	sts	0x0091, r1
 2d8:	8f ef       	ldi	r24, 0xFF	; 255
 2da:	80 93 60 00 	sts	0x0060, r24
 2de:	10 92 7d 00 	sts	0x007D, r1
 2e2:	80 91 60 00 	lds	r24, 0x0060
 2e6:	8f 3f       	cpi	r24, 0xFF	; 255
 2e8:	41 f4       	brne	.+16     	; 0x2fa <__vector_4+0x9e>
 2ea:	21 11       	cpse	r18, r1
 2ec:	53 c0       	rjmp	.+166    	; 0x394 <__vector_4+0x138>
 2ee:	10 92 60 00 	sts	0x0060, r1
 2f2:	81 e0       	ldi	r24, 0x01	; 1
 2f4:	80 93 7a 00 	sts	0x007A, r24
 2f8:	4d c0       	rjmp	.+154    	; 0x394 <__vector_4+0x138>
 2fa:	80 91 60 00 	lds	r24, 0x0060
 2fe:	88 30       	cpi	r24, 0x08	; 8
 300:	0c f0       	brlt	.+2      	; 0x304 <__vector_4+0xa8>
 302:	45 c0       	rjmp	.+138    	; 0x38e <__vector_4+0x132>
 304:	80 91 91 00 	lds	r24, 0x0091
 308:	90 91 92 00 	lds	r25, 0x0092
 30c:	40 97       	sbiw	r24, 0x10	; 16
 30e:	38 f4       	brcc	.+14     	; 0x31e <__vector_4+0xc2>
 310:	90 91 7d 00 	lds	r25, 0x007D
 314:	80 91 7a 00 	lds	r24, 0x007A
 318:	80 95       	com	r24
 31a:	89 23       	and	r24, r25
 31c:	0b c0       	rjmp	.+22     	; 0x334 <__vector_4+0xd8>
 31e:	80 91 91 00 	lds	r24, 0x0091
 322:	90 91 92 00 	lds	r25, 0x0092
 326:	80 97       	sbiw	r24, 0x20	; 32
 328:	90 f4       	brcc	.+36     	; 0x34e <__vector_4+0xf2>
 32a:	90 91 7d 00 	lds	r25, 0x007D
 32e:	80 91 7a 00 	lds	r24, 0x007A
 332:	89 2b       	or	r24, r25
 334:	80 93 7d 00 	sts	0x007D, r24
 338:	80 91 60 00 	lds	r24, 0x0060
 33c:	8f 5f       	subi	r24, 0xFF	; 255
 33e:	80 93 60 00 	sts	0x0060, r24
 342:	80 91 7a 00 	lds	r24, 0x007A
 346:	88 0f       	add	r24, r24
 348:	80 93 7a 00 	sts	0x007A, r24
 34c:	0e c0       	rjmp	.+28     	; 0x36a <__vector_4+0x10e>
 34e:	80 91 60 00 	lds	r24, 0x0060
 352:	87 30       	cpi	r24, 0x07	; 7
 354:	54 f4       	brge	.+20     	; 0x36a <__vector_4+0x10e>
 356:	80 91 86 00 	lds	r24, 0x0086
 35a:	81 11       	cpse	r24, r1
 35c:	06 c0       	rjmp	.+12     	; 0x36a <__vector_4+0x10e>
 35e:	81 e0       	ldi	r24, 0x01	; 1
 360:	80 93 87 00 	sts	0x0087, r24
 364:	8f ef       	ldi	r24, 0xFF	; 255
 366:	80 93 60 00 	sts	0x0060, r24
 36a:	80 91 60 00 	lds	r24, 0x0060
 36e:	88 30       	cpi	r24, 0x08	; 8
 370:	19 f4       	brne	.+6      	; 0x378 <__vector_4+0x11c>
 372:	81 e0       	ldi	r24, 0x01	; 1
 374:	80 93 7b 00 	sts	0x007B, r24
 378:	80 91 86 00 	lds	r24, 0x0086
 37c:	81 11       	cpse	r24, r1
 37e:	0a c0       	rjmp	.+20     	; 0x394 <__vector_4+0x138>
 380:	80 91 60 00 	lds	r24, 0x0060
 384:	81 30       	cpi	r24, 0x01	; 1
 386:	31 f4       	brne	.+12     	; 0x394 <__vector_4+0x138>
 388:	80 93 86 00 	sts	0x0086, r24
 38c:	03 c0       	rjmp	.+6      	; 0x394 <__vector_4+0x138>
 38e:	8f ef       	ldi	r24, 0xFF	; 255
 390:	80 93 60 00 	sts	0x0060, r24
 394:	20 93 90 00 	sts	0x0090, r18
 398:	10 92 92 00 	sts	0x0092, r1
 39c:	10 92 91 00 	sts	0x0091, r1
 3a0:	19 c0       	rjmp	.+50     	; 0x3d4 <__vector_4+0x178>
 3a2:	80 91 91 00 	lds	r24, 0x0091
 3a6:	90 91 92 00 	lds	r25, 0x0092
 3aa:	01 96       	adiw	r24, 0x01	; 1
 3ac:	90 93 92 00 	sts	0x0092, r25
 3b0:	80 93 91 00 	sts	0x0091, r24
 3b4:	88 3e       	cpi	r24, 0xE8	; 232
 3b6:	9d 4f       	sbci	r25, 0xFD	; 253
 3b8:	68 f0       	brcs	.+26     	; 0x3d4 <__vector_4+0x178>
 3ba:	10 92 92 00 	sts	0x0092, r1
 3be:	10 92 91 00 	sts	0x0091, r1
 3c2:	8f ef       	ldi	r24, 0xFF	; 255
 3c4:	80 93 60 00 	sts	0x0060, r24
 3c8:	80 91 86 00 	lds	r24, 0x0086
 3cc:	81 30       	cpi	r24, 0x01	; 1
 3ce:	11 f4       	brne	.+4      	; 0x3d4 <__vector_4+0x178>
 3d0:	10 92 86 00 	sts	0x0086, r1
 3d4:	80 91 82 00 	lds	r24, 0x0082
 3d8:	90 91 83 00 	lds	r25, 0x0083
 3dc:	89 2b       	or	r24, r25
 3de:	09 f0       	breq	.+2      	; 0x3e2 <__vector_4+0x186>
 3e0:	4b c0       	rjmp	.+150    	; 0x478 <__vector_4+0x21c>
 3e2:	8b b3       	in	r24, 0x1b	; 27
 3e4:	8c 7f       	andi	r24, 0xFC	; 252
 3e6:	8b bb       	out	0x1b, r24	; 27
 3e8:	8b b3       	in	r24, 0x1b	; 27
 3ea:	83 60       	ori	r24, 0x03	; 3
 3ec:	8b bb       	out	0x1b, r24	; 27
 3ee:	86 ed       	ldi	r24, 0xD6	; 214
 3f0:	88 bb       	out	0x18, r24	; 24
 3f2:	82 b3       	in	r24, 0x12	; 18
 3f4:	80 7c       	andi	r24, 0xC0	; 192
 3f6:	82 bb       	out	0x12, r24	; 18
 3f8:	93 9a       	sbi	0x12, 3	; 18
 3fa:	80 91 61 00 	lds	r24, 0x0061
 3fe:	88 23       	and	r24, r24
 400:	09 f4       	brne	.+2      	; 0x404 <__vector_4+0x1a8>
 402:	3a c0       	rjmp	.+116    	; 0x478 <__vector_4+0x21c>
 404:	80 91 85 00 	lds	r24, 0x0085
 408:	8f 5f       	subi	r24, 0xFF	; 255
 40a:	80 93 85 00 	sts	0x0085, r24
 40e:	80 91 85 00 	lds	r24, 0x0085
 412:	88 30       	cpi	r24, 0x08	; 8
 414:	10 f0       	brcs	.+4      	; 0x41a <__vector_4+0x1be>
 416:	10 92 85 00 	sts	0x0085, r1
 41a:	e0 91 85 00 	lds	r30, 0x0085
 41e:	f0 e0       	ldi	r31, 0x00	; 0
 420:	e8 57       	subi	r30, 0x78	; 120
 422:	ff 4f       	sbci	r31, 0xFF	; 255
 424:	80 81       	ld	r24, Z
 426:	80 fd       	sbrc	r24, 0
 428:	c7 98       	cbi	0x18, 7	; 24
 42a:	81 fd       	sbrc	r24, 1
 42c:	c6 98       	cbi	0x18, 6	; 24
 42e:	82 fd       	sbrc	r24, 2
 430:	c2 98       	cbi	0x18, 2	; 24
 432:	83 fd       	sbrc	r24, 3
 434:	93 98       	cbi	0x12, 3	; 18
 436:	84 fd       	sbrc	r24, 4
 438:	c1 98       	cbi	0x18, 1	; 24
 43a:	85 fd       	sbrc	r24, 5
 43c:	d8 98       	cbi	0x1b, 0	; 27
 43e:	86 fd       	sbrc	r24, 6
 440:	d9 98       	cbi	0x1b, 1	; 27
 442:	87 fd       	sbrc	r24, 7
 444:	c4 98       	cbi	0x18, 4	; 24
 446:	80 91 85 00 	lds	r24, 0x0085
 44a:	90 e0       	ldi	r25, 0x00	; 0
 44c:	88 30       	cpi	r24, 0x08	; 8
 44e:	91 05       	cpc	r25, r1
 450:	98 f4       	brcc	.+38     	; 0x478 <__vector_4+0x21c>
 452:	fc 01       	movw	r30, r24
 454:	eb 5e       	subi	r30, 0xEB	; 235
 456:	ff 4f       	sbci	r31, 0xFF	; 255
 458:	09 94       	ijmp
 45a:	92 9a       	sbi	0x12, 2	; 18
 45c:	0d c0       	rjmp	.+26     	; 0x478 <__vector_4+0x21c>
 45e:	91 9a       	sbi	0x12, 1	; 18
 460:	0b c0       	rjmp	.+22     	; 0x478 <__vector_4+0x21c>
 462:	94 9a       	sbi	0x12, 4	; 18
 464:	09 c0       	rjmp	.+18     	; 0x478 <__vector_4+0x21c>
 466:	90 9a       	sbi	0x12, 0	; 18
 468:	07 c0       	rjmp	.+14     	; 0x478 <__vector_4+0x21c>
 46a:	c3 9a       	sbi	0x18, 3	; 24
 46c:	05 c0       	rjmp	.+10     	; 0x478 <__vector_4+0x21c>
 46e:	95 9a       	sbi	0x12, 5	; 18
 470:	03 c0       	rjmp	.+6      	; 0x478 <__vector_4+0x21c>
 472:	c5 9a       	sbi	0x18, 5	; 24
 474:	01 c0       	rjmp	.+2      	; 0x478 <__vector_4+0x21c>
 476:	c0 9a       	sbi	0x18, 0	; 24
 478:	ff 91       	pop	r31
 47a:	ef 91       	pop	r30
 47c:	bf 91       	pop	r27
 47e:	af 91       	pop	r26
 480:	9f 91       	pop	r25
 482:	8f 91       	pop	r24
 484:	2f 91       	pop	r18
 486:	0f 90       	pop	r0
 488:	0f be       	out	0x3f, r0	; 63
 48a:	0f 90       	pop	r0
 48c:	1f 90       	pop	r1
 48e:	18 95       	reti

00000490 <main>:
 490:	cf 93       	push	r28
 492:	df 93       	push	r29
 494:	cd b7       	in	r28, 0x3d	; 61
 496:	de b7       	in	r29, 0x3e	; 62
 498:	28 97       	sbiw	r28, 0x08	; 8
 49a:	0f b6       	in	r0, 0x3f	; 63
 49c:	f8 94       	cli
 49e:	de bf       	out	0x3e, r29	; 62
 4a0:	0f be       	out	0x3f, r0	; 63
 4a2:	cd bf       	out	0x3d, r28	; 61
 4a4:	8e b5       	in	r24, 0x2e	; 46
 4a6:	88 60       	ori	r24, 0x08	; 8
 4a8:	8e bd       	out	0x2e, r24	; 46
 4aa:	8e b5       	in	r24, 0x2e	; 46
 4ac:	81 60       	ori	r24, 0x01	; 1
 4ae:	8e bd       	out	0x2e, r24	; 46
 4b0:	87 ec       	ldi	r24, 0xC7	; 199
 4b2:	90 e0       	ldi	r25, 0x00	; 0
 4b4:	9b bd       	out	0x2b, r25	; 43
 4b6:	8a bd       	out	0x2a, r24	; 42
 4b8:	89 b7       	in	r24, 0x39	; 57
 4ba:	80 64       	ori	r24, 0x40	; 64
 4bc:	89 bf       	out	0x39, r24	; 57
 4be:	47 9a       	sbi	0x08, 7	; 8
 4c0:	8e 98       	cbi	0x11, 6	; 17
 4c2:	96 9a       	sbi	0x12, 6	; 18
 4c4:	d2 9a       	sbi	0x1a, 2	; 26
 4c6:	da 98       	cbi	0x1b, 2	; 27
 4c8:	8a b3       	in	r24, 0x1a	; 26
 4ca:	83 60       	ori	r24, 0x03	; 3
 4cc:	8a bb       	out	0x1a, r24	; 26
 4ce:	87 b3       	in	r24, 0x17	; 23
 4d0:	8f ef       	ldi	r24, 0xFF	; 255
 4d2:	87 bb       	out	0x17, r24	; 23
 4d4:	81 b3       	in	r24, 0x11	; 17
 4d6:	8f 63       	ori	r24, 0x3F	; 63
 4d8:	81 bb       	out	0x11, r24	; 17
 4da:	78 94       	sei
 4dc:	da 9a       	sbi	0x1b, 2	; 27
 4de:	88 e9       	ldi	r24, 0x98	; 152
 4e0:	9a e3       	ldi	r25, 0x3A	; 58
 4e2:	b0 de       	rcall	.-672    	; 0x244 <delay>
 4e4:	86 99       	sbic	0x10, 6	; 16
 4e6:	0a c0       	rjmp	.+20     	; 0x4fc <main+0x6c>
 4e8:	82 e0       	ldi	r24, 0x02	; 2
 4ea:	80 93 86 00 	sts	0x0086, r24
 4ee:	88 e1       	ldi	r24, 0x18	; 24
 4f0:	80 93 8b 00 	sts	0x008B, r24
 4f4:	80 93 8c 00 	sts	0x008C, r24
 4f8:	10 92 90 00 	sts	0x0090, r1
 4fc:	f4 e0       	ldi	r31, 0x04	; 4
 4fe:	cf 2e       	mov	r12, r31
 500:	02 e0       	ldi	r16, 0x02	; 2
 502:	a2 e0       	ldi	r26, 0x02	; 2
 504:	da 2e       	mov	r13, r26
 506:	80 91 86 00 	lds	r24, 0x0086
 50a:	81 30       	cpi	r24, 0x01	; 1
 50c:	99 f4       	brne	.+38     	; 0x534 <main+0xa4>
 50e:	80 91 7b 00 	lds	r24, 0x007B
 512:	81 11       	cpse	r24, r1
 514:	04 c0       	rjmp	.+8      	; 0x51e <main+0x8e>
 516:	80 91 86 00 	lds	r24, 0x0086
 51a:	81 30       	cpi	r24, 0x01	; 1
 51c:	c1 f3       	breq	.-16     	; 0x50e <main+0x7e>
 51e:	80 91 7d 00 	lds	r24, 0x007D
 522:	89 83       	std	Y+1, r24	; 0x01
 524:	10 92 7b 00 	sts	0x007B, r1
 528:	b0 2e       	mov	r11, r16
 52a:	99 24       	eor	r9, r9
 52c:	93 94       	inc	r9
 52e:	aa 24       	eor	r10, r10
 530:	a3 94       	inc	r10
 532:	d9 c0       	rjmp	.+434    	; 0x6e6 <main+0x256>
 534:	80 91 86 00 	lds	r24, 0x0086
 538:	82 30       	cpi	r24, 0x02	; 2
 53a:	09 f5       	brne	.+66     	; 0x57e <main+0xee>
 53c:	10 e0       	ldi	r17, 0x00	; 0
 53e:	80 91 86 00 	lds	r24, 0x0086
 542:	82 30       	cpi	r24, 0x02	; 2
 544:	09 f0       	breq	.+2      	; 0x548 <main+0xb8>
 546:	c6 c0       	rjmp	.+396    	; 0x6d4 <main+0x244>
 548:	80 91 7b 00 	lds	r24, 0x007B
 54c:	88 23       	and	r24, r24
 54e:	e1 f3       	breq	.-8      	; 0x548 <main+0xb8>
 550:	12 30       	cpi	r17, 0x02	; 2
 552:	28 f4       	brcc	.+10     	; 0x55e <main+0xce>
 554:	80 91 7d 00 	lds	r24, 0x007D
 558:	8a 3a       	cpi	r24, 0xAA	; 170
 55a:	71 f4       	brne	.+28     	; 0x578 <main+0xe8>
 55c:	0c c0       	rjmp	.+24     	; 0x576 <main+0xe6>
 55e:	17 fd       	sbrc	r17, 7
 560:	0b c0       	rjmp	.+22     	; 0x578 <main+0xe8>
 562:	60 91 7d 00 	lds	r22, 0x007D
 566:	81 2f       	mov	r24, r17
 568:	90 e0       	ldi	r25, 0x00	; 0
 56a:	28 d1       	rcall	.+592    	; 0x7bc <__eewr_byte_tn4313>
 56c:	80 91 61 00 	lds	r24, 0x0061
 570:	80 95       	com	r24
 572:	80 93 61 00 	sts	0x0061, r24
 576:	1f 5f       	subi	r17, 0xFF	; 255
 578:	10 92 7b 00 	sts	0x007B, r1
 57c:	e0 cf       	rjmp	.-64     	; 0x53e <main+0xae>
 57e:	80 2f       	mov	r24, r16
 580:	90 e0       	ldi	r25, 0x00	; 0
 582:	14 d1       	rcall	.+552    	; 0x7ac <__eerd_byte_tn4313>
 584:	bb 24       	eor	r11, r11
 586:	b3 94       	inc	r11
 588:	b0 0e       	add	r11, r16
 58a:	82 30       	cpi	r24, 0x02	; 2
 58c:	60 f4       	brcc	.+24     	; 0x5a6 <main+0x116>
 58e:	90 91 87 00 	lds	r25, 0x0087
 592:	99 23       	and	r25, r25
 594:	09 f4       	brne	.+2      	; 0x598 <main+0x108>
 596:	95 c0       	rjmp	.+298    	; 0x6c2 <main+0x232>
 598:	10 92 87 00 	sts	0x0087, r1
 59c:	81 30       	cpi	r24, 0x01	; 1
 59e:	09 f4       	brne	.+2      	; 0x5a2 <main+0x112>
 5a0:	92 c0       	rjmp	.+292    	; 0x6c6 <main+0x236>
 5a2:	db 2c       	mov	r13, r11
 5a4:	9e c0       	rjmp	.+316    	; 0x6e2 <main+0x252>
 5a6:	8a 30       	cpi	r24, 0x0A	; 10
 5a8:	20 f4       	brcc	.+8      	; 0x5b2 <main+0x122>
 5aa:	ee ef       	ldi	r30, 0xFE	; 254
 5ac:	ce 2e       	mov	r12, r30
 5ae:	c8 0e       	add	r12, r24
 5b0:	98 c0       	rjmp	.+304    	; 0x6e2 <main+0x252>
 5b2:	8a 30       	cpi	r24, 0x0A	; 10
 5b4:	31 f4       	brne	.+12     	; 0x5c2 <main+0x132>
 5b6:	80 91 84 00 	lds	r24, 0x0084
 5ba:	80 95       	com	r24
 5bc:	80 93 84 00 	sts	0x0084, r24
 5c0:	90 c0       	rjmp	.+288    	; 0x6e2 <main+0x252>
 5c2:	8b 30       	cpi	r24, 0x0B	; 11
 5c4:	31 f4       	brne	.+12     	; 0x5d2 <main+0x142>
 5c6:	80 91 87 00 	lds	r24, 0x0087
 5ca:	88 23       	and	r24, r24
 5cc:	09 f4       	brne	.+2      	; 0x5d0 <main+0x140>
 5ce:	82 c0       	rjmp	.+260    	; 0x6d4 <main+0x244>
 5d0:	88 c0       	rjmp	.+272    	; 0x6e2 <main+0x252>
 5d2:	86 31       	cpi	r24, 0x16	; 22
 5d4:	c0 f4       	brcc	.+48     	; 0x606 <main+0x176>
 5d6:	90 91 87 00 	lds	r25, 0x0087
 5da:	91 11       	cpse	r25, r1
 5dc:	82 c0       	rjmp	.+260    	; 0x6e2 <main+0x252>
 5de:	10 92 81 00 	sts	0x0081, r1
 5e2:	10 92 80 00 	sts	0x0080, r1
 5e6:	e8 2f       	mov	r30, r24
 5e8:	f0 e0       	ldi	r31, 0x00	; 0
 5ea:	ee 0f       	add	r30, r30
 5ec:	ff 1f       	adc	r31, r31
 5ee:	e2 5b       	subi	r30, 0xB2	; 178
 5f0:	ff 4f       	sbci	r31, 0xFF	; 255
 5f2:	80 81       	ld	r24, Z
 5f4:	91 81       	ldd	r25, Z+1	; 0x01
 5f6:	20 91 80 00 	lds	r18, 0x0080
 5fa:	30 91 81 00 	lds	r19, 0x0081
 5fe:	28 17       	cp	r18, r24
 600:	39 07       	cpc	r19, r25
 602:	c8 f3       	brcs	.-14     	; 0x5f6 <main+0x166>
 604:	6e c0       	rjmp	.+220    	; 0x6e2 <main+0x252>
 606:	8e 31       	cpi	r24, 0x1E	; 30
 608:	f8 f4       	brcc	.+62     	; 0x648 <main+0x1b8>
 60a:	55 e2       	ldi	r21, 0x25	; 37
 60c:	e5 2e       	mov	r14, r21
 60e:	f1 2c       	mov	r15, r1
 610:	e8 1a       	sub	r14, r24
 612:	f1 08       	sbc	r15, r1
 614:	63 e0       	ldi	r22, 0x03	; 3
 616:	ee 0c       	add	r14, r14
 618:	ff 1c       	adc	r15, r15
 61a:	6a 95       	dec	r22
 61c:	e1 f7       	brne	.-8      	; 0x616 <main+0x186>
 61e:	8e 01       	movw	r16, r28
 620:	0f 5f       	subi	r16, 0xFF	; 255
 622:	1f 4f       	sbci	r17, 0xFF	; 255
 624:	38 01       	movw	r6, r16
 626:	4e 01       	movw	r8, r28
 628:	89 e0       	ldi	r24, 0x09	; 9
 62a:	88 0e       	add	r8, r24
 62c:	91 1c       	adc	r9, r1
 62e:	c7 01       	movw	r24, r14
 630:	86 19       	sub	r24, r6
 632:	97 09       	sbc	r25, r7
 634:	80 0f       	add	r24, r16
 636:	91 1f       	adc	r25, r17
 638:	b9 d0       	rcall	.+370    	; 0x7ac <__eerd_byte_tn4313>
 63a:	f8 01       	movw	r30, r16
 63c:	81 93       	st	Z+, r24
 63e:	8f 01       	movw	r16, r30
 640:	e8 15       	cp	r30, r8
 642:	f9 05       	cpc	r31, r9
 644:	a1 f7       	brne	.-24     	; 0x62e <main+0x19e>
 646:	48 c0       	rjmp	.+144    	; 0x6d8 <main+0x248>
 648:	81 32       	cpi	r24, 0x21	; 33
 64a:	20 f4       	brcc	.+8      	; 0x654 <main+0x1c4>
 64c:	43 ee       	ldi	r20, 0xE3	; 227
 64e:	94 2e       	mov	r9, r20
 650:	98 0e       	add	r9, r24
 652:	48 c0       	rjmp	.+144    	; 0x6e4 <main+0x254>
 654:	87 38       	cpi	r24, 0x87	; 135
 656:	08 f0       	brcs	.+2      	; 0x65a <main+0x1ca>
 658:	44 c0       	rjmp	.+136    	; 0x6e2 <main+0x252>
 65a:	20 e0       	ldi	r18, 0x00	; 0
 65c:	30 e0       	ldi	r19, 0x00	; 0
 65e:	a1 2c       	mov	r10, r1
 660:	90 e0       	ldi	r25, 0x00	; 0
 662:	49 2f       	mov	r20, r25
 664:	50 e0       	ldi	r21, 0x00	; 0
 666:	68 2f       	mov	r22, r24
 668:	70 e0       	ldi	r23, 0x00	; 0
 66a:	db 01       	movw	r26, r22
 66c:	90 97       	sbiw	r26, 0x20	; 32
 66e:	4a 17       	cp	r20, r26
 670:	5b 07       	cpc	r21, r27
 672:	ac f4       	brge	.+42     	; 0x69e <main+0x20e>
 674:	e9 2f       	mov	r30, r25
 676:	e6 95       	lsr	r30
 678:	f0 e0       	ldi	r31, 0x00	; 0
 67a:	e6 5c       	subi	r30, 0xC6	; 198
 67c:	ff 4f       	sbci	r31, 0xFF	; 255
 67e:	e4 91       	lpm	r30, Z
 680:	90 fd       	sbrc	r25, 0
 682:	02 c0       	rjmp	.+4      	; 0x688 <main+0x1f8>
 684:	e2 95       	swap	r30
 686:	ef 70       	andi	r30, 0x0F	; 15
 688:	ef 70       	andi	r30, 0x0F	; 15
 68a:	ae 2e       	mov	r10, r30
 68c:	61 52       	subi	r22, 0x21	; 33
 68e:	71 09       	sbc	r23, r1
 690:	46 17       	cp	r20, r22
 692:	57 07       	cpc	r21, r23
 694:	14 f4       	brge	.+4      	; 0x69a <main+0x20a>
 696:	2e 0f       	add	r18, r30
 698:	31 1d       	adc	r19, r1
 69a:	9f 5f       	subi	r25, 0xFF	; 255
 69c:	e2 cf       	rjmp	.-60     	; 0x662 <main+0x1d2>
 69e:	f9 01       	movw	r30, r18
 6a0:	e3 59       	subi	r30, 0x93	; 147
 6a2:	ff 4f       	sbci	r31, 0xFF	; 255
 6a4:	ce 01       	movw	r24, r28
 6a6:	01 96       	adiw	r24, 0x01	; 1
 6a8:	dc 01       	movw	r26, r24
 6aa:	4a 2f       	mov	r20, r26
 6ac:	48 1b       	sub	r20, r24
 6ae:	4a 15       	cp	r20, r10
 6b0:	20 f4       	brcc	.+8      	; 0x6ba <main+0x22a>
 6b2:	44 91       	lpm	r20, Z
 6b4:	4d 93       	st	X+, r20
 6b6:	31 96       	adiw	r30, 0x01	; 1
 6b8:	f8 cf       	rjmp	.-16     	; 0x6aa <main+0x21a>
 6ba:	99 24       	eor	r9, r9
 6bc:	93 94       	inc	r9
 6be:	9a 0c       	add	r9, r10
 6c0:	12 c0       	rjmp	.+36     	; 0x6e6 <main+0x256>
 6c2:	bd 2c       	mov	r11, r13
 6c4:	0e c0       	rjmp	.+28     	; 0x6e2 <main+0x252>
 6c6:	91 2c       	mov	r9, r1
 6c8:	a1 2c       	mov	r10, r1
 6ca:	22 e0       	ldi	r18, 0x02	; 2
 6cc:	b2 2e       	mov	r11, r18
 6ce:	32 e0       	ldi	r19, 0x02	; 2
 6d0:	d3 2e       	mov	r13, r19
 6d2:	09 c0       	rjmp	.+18     	; 0x6e6 <main+0x256>
 6d4:	b0 2e       	mov	r11, r16
 6d6:	05 c0       	rjmp	.+10     	; 0x6e2 <main+0x252>
 6d8:	88 e0       	ldi	r24, 0x08	; 8
 6da:	98 2e       	mov	r9, r24
 6dc:	98 e0       	ldi	r25, 0x08	; 8
 6de:	a9 2e       	mov	r10, r25
 6e0:	02 c0       	rjmp	.+4      	; 0x6e6 <main+0x256>
 6e2:	91 2c       	mov	r9, r1
 6e4:	a1 2c       	mov	r10, r1
 6e6:	ce 01       	movw	r24, r28
 6e8:	01 96       	adiw	r24, 0x01	; 1
 6ea:	7c 01       	movw	r14, r24
 6ec:	8c 01       	movw	r16, r24
 6ee:	80 2e       	mov	r8, r16
 6f0:	8e 18       	sub	r8, r14
 6f2:	89 14       	cp	r8, r9
 6f4:	08 f0       	brcs	.+2      	; 0x6f8 <main+0x268>
 6f6:	58 c0       	rjmp	.+176    	; 0x7a8 <main+0x318>
 6f8:	80 91 87 00 	lds	r24, 0x0087
 6fc:	81 11       	cpse	r24, r1
 6fe:	54 c0       	rjmp	.+168    	; 0x7a8 <main+0x318>
 700:	cc 20       	and	r12, r12
 702:	21 f1       	breq	.+72     	; 0x74c <main+0x2bc>
 704:	10 92 7f 00 	sts	0x007F, r1
 708:	10 92 7e 00 	sts	0x007E, r1
 70c:	da 98       	cbi	0x1b, 2	; 27
 70e:	81 e0       	ldi	r24, 0x01	; 1
 710:	80 93 7a 00 	sts	0x007A, r24
 714:	80 91 7a 00 	lds	r24, 0x007A
 718:	88 23       	and	r24, r24
 71a:	a1 f0       	breq	.+40     	; 0x744 <main+0x2b4>
 71c:	90 91 8f 00 	lds	r25, 0x008F
 720:	80 91 7a 00 	lds	r24, 0x007A
 724:	89 23       	and	r24, r25
 726:	19 f0       	breq	.+6      	; 0x72e <main+0x29e>
 728:	86 e1       	ldi	r24, 0x16	; 22
 72a:	90 e0       	ldi	r25, 0x00	; 0
 72c:	02 c0       	rjmp	.+4      	; 0x732 <main+0x2a2>
 72e:	8a e0       	ldi	r24, 0x0A	; 10
 730:	90 e0       	ldi	r25, 0x00	; 0
 732:	88 dd       	rcall	.-1264   	; 0x244 <delay>
 734:	8b b3       	in	r24, 0x1b	; 27
 736:	94 e0       	ldi	r25, 0x04	; 4
 738:	89 27       	eor	r24, r25
 73a:	8b bb       	out	0x1b, r24	; 27
 73c:	80 91 7a 00 	lds	r24, 0x007A
 740:	88 0f       	add	r24, r24
 742:	e6 cf       	rjmp	.-52     	; 0x710 <main+0x280>
 744:	88 e0       	ldi	r24, 0x08	; 8
 746:	90 e0       	ldi	r25, 0x00	; 0
 748:	7d dd       	rcall	.-1286   	; 0x244 <delay>
 74a:	da 9a       	sbi	0x1b, 2	; 27
 74c:	26 e0       	ldi	r18, 0x06	; 6
 74e:	30 e0       	ldi	r19, 0x00	; 0
 750:	d9 01       	movw	r26, r18
 752:	a8 57       	subi	r26, 0x78	; 120
 754:	bf 4f       	sbci	r27, 0xFF	; 255
 756:	8c 91       	ld	r24, X
 758:	d9 01       	movw	r26, r18
 75a:	a7 57       	subi	r26, 0x77	; 119
 75c:	bf 4f       	sbci	r27, 0xFF	; 255
 75e:	8c 93       	st	X, r24
 760:	21 50       	subi	r18, 0x01	; 1
 762:	31 09       	sbc	r19, r1
 764:	a8 f7       	brcc	.-22     	; 0x750 <main+0x2c0>
 766:	80 91 84 00 	lds	r24, 0x0084
 76a:	8a 14       	cp	r8, r10
 76c:	18 f4       	brcc	.+6      	; 0x774 <main+0x2e4>
 76e:	f8 01       	movw	r30, r16
 770:	90 81       	ld	r25, Z
 772:	89 27       	eor	r24, r25
 774:	80 93 88 00 	sts	0x0088, r24
 778:	10 92 81 00 	sts	0x0081, r1
 77c:	10 92 80 00 	sts	0x0080, r1
 780:	ac 2d       	mov	r26, r12
 782:	b0 e0       	ldi	r27, 0x00	; 0
 784:	ae 59       	subi	r26, 0x9E	; 158
 786:	bf 4f       	sbci	r27, 0xFF	; 255
 788:	2c 91       	ld	r18, X
 78a:	30 e0       	ldi	r19, 0x00	; 0
 78c:	40 91 80 00 	lds	r20, 0x0080
 790:	50 91 81 00 	lds	r21, 0x0081
 794:	42 17       	cp	r20, r18
 796:	53 07       	cpc	r21, r19
 798:	20 f4       	brcc	.+8      	; 0x7a2 <main+0x312>
 79a:	80 91 86 00 	lds	r24, 0x0086
 79e:	88 23       	and	r24, r24
 7a0:	a9 f3       	breq	.-22     	; 0x78c <main+0x2fc>
 7a2:	0f 5f       	subi	r16, 0xFF	; 255
 7a4:	1f 4f       	sbci	r17, 0xFF	; 255
 7a6:	a3 cf       	rjmp	.-186    	; 0x6ee <main+0x25e>
 7a8:	0b 2d       	mov	r16, r11
 7aa:	ad ce       	rjmp	.-678    	; 0x506 <main+0x76>

000007ac <__eerd_byte_tn4313>:
 7ac:	e1 99       	sbic	0x1c, 1	; 28
 7ae:	fe cf       	rjmp	.-4      	; 0x7ac <__eerd_byte_tn4313>
 7b0:	1f ba       	out	0x1f, r1	; 31
 7b2:	8e bb       	out	0x1e, r24	; 30
 7b4:	e0 9a       	sbi	0x1c, 0	; 28
 7b6:	99 27       	eor	r25, r25
 7b8:	8d b3       	in	r24, 0x1d	; 29
 7ba:	08 95       	ret

000007bc <__eewr_byte_tn4313>:
 7bc:	26 2f       	mov	r18, r22

000007be <__eewr_r18_tn4313>:
 7be:	e1 99       	sbic	0x1c, 1	; 28
 7c0:	fe cf       	rjmp	.-4      	; 0x7be <__eewr_r18_tn4313>
 7c2:	1c ba       	out	0x1c, r1	; 28
 7c4:	1f ba       	out	0x1f, r1	; 31
 7c6:	8e bb       	out	0x1e, r24	; 30
 7c8:	2d bb       	out	0x1d, r18	; 29
 7ca:	0f b6       	in	r0, 0x3f	; 63
 7cc:	f8 94       	cli
 7ce:	e2 9a       	sbi	0x1c, 2	; 28
 7d0:	e1 9a       	sbi	0x1c, 1	; 28
 7d2:	0f be       	out	0x3f, r0	; 63
 7d4:	01 96       	adiw	r24, 0x01	; 1
 7d6:	08 95       	ret

000007d8 <_exit>:
 7d8:	f8 94       	cli

000007da <__stop_program>:
 7da:	ff cf       	rjmp	.-2      	; 0x7da <__stop_program>
